target datalayout = "e-m:e-p270:32:32-p271:32:32-p272:64:64-i64:64-i128:128-f80:128-n8:16:32:64-S128"
target triple = "x86_64-pc-linux-gnu"

%struct.darktable_t = type { %struct.dt_codepath_t, i32, i32, ptr, ptr, ptr, ptr, ptr, ptr, ptr, ptr, ptr, ptr, ptr, ptr, ptr, ptr, ptr, ptr, ptr, ptr, ptr, ptr, ptr, ptr, ptr, ptr, ptr, ptr, ptr, [64 x %struct.dt_pthread_mutex_t], %struct.dt_pthread_mutex_t, %struct.dt_pthread_mutex_t, %struct.dt_pthread_mutex_t, %struct.dt_pthread_mutex_t, %struct.dt_pthread_mutex_t, ptr, ptr, ptr, ptr, ptr, ptr, ptr, ptr, ptr, ptr, ptr, ptr, ptr, %struct.dt_lua_state_t, ptr, double, ptr, i32, [47 x i32], i32, i32, ptr, ptr, %struct.dt_sys_resources_t, %struct.dt_backthumb_t, %struct.dt_gimp_t }
%struct.dt_codepath_t = type { i8, [3 x i8] }
%struct.dt_pthread_mutex_t = type { %union.pthread_mutex_t }
%union.pthread_mutex_t = type { %struct.__pthread_mutex_s }
%struct.__pthread_mutex_s = type { i32, i32, i32, i32, i32, i16, i16, %struct.__pthread_internal_list }
%struct.__pthread_internal_list = type { ptr, ptr }
%struct.dt_lua_state_t = type { i32 }
%struct.dt_sys_resources_t = type { i64, i64, ptr, ptr, i32 }
%struct.dt_backthumb_t = type { double, double, i32, i32, i32, i32 }
%struct.dt_gimp_t = type { i32, ptr, ptr, i32, i32 }
%struct.dt_control_image_enumerator_t = type { ptr, i32, ptr, i32 }
%struct._GList = type { ptr, ptr, ptr }
%struct.timeval = type { i64, i64 }

@darktable = external global %struct.darktable_t, align 8
@.str.48 = private unnamed_addr constant [129 x i8] c"generated/home/dtcxzyw/WorkSpace/Projects/compilers/llvm-opt-benchmark/bench/darktable/darktable/src/control/jobs/control_jobs.c\00", align 1
@.str.60 = private unnamed_addr constant [40 x i8] c"[signal] raise %s; %s:%d, function %s()\00", align 1
@.str.61 = private unnamed_addr constant [28 x i8] c"DT_SIGNAL_FILMROLLS_CHANGED\00", align 1
@.str.80 = private unnamed_addr constant [21 x i8] c"duplicating %d image\00", align 1
@.str.81 = private unnamed_addr constant [22 x i8] c"duplicating %d images\00", align 1
@__FUNCTION__.dt_control_duplicate_images_job_run = private unnamed_addr constant [36 x i8] c"dt_control_duplicate_images_job_run\00", align 1

; Function Attrs: nounwind uwtable
define internal void @_update_progress(ptr noundef %0, double noundef %1, ptr noundef %2) #0 {
  %4 = alloca ptr, align 8
  %5 = alloca double, align 8
  %6 = alloca ptr, align 8
  %7 = alloca double, align 8
  store ptr %0, ptr %4, align 8, !tbaa !51
  store double %1, ptr %5, align 8, !tbaa !61
  store ptr %2, ptr %6, align 8, !tbaa !266
  call void @llvm.lifetime.start.p0(i64 8, ptr %7) #14
  %8 = call reassoc nsz arcp contract afn double @dt_get_wtime()
  store double %8, ptr %7, align 8, !tbaa !61
  %9 = load double, ptr %7, align 8, !tbaa !61
  %10 = load ptr, ptr %6, align 8, !tbaa !266
  %11 = load double, ptr %10, align 8, !tbaa !61
  %12 = fadd reassoc nsz arcp contract afn double %11, 5.000000e-01
  %13 = fcmp reassoc nsz arcp contract afn ogt double %9, %12
  br i1 %13, label %14, label %31

14:                                               ; preds = %3
  %15 = load ptr, ptr %4, align 8, !tbaa !51
  %16 = load double, ptr %5, align 8, !tbaa !61
  %17 = fcmp reassoc nsz arcp contract afn ogt double %16, 1.000000e+00
  br i1 %17, label %18, label %19

18:                                               ; preds = %14
  br label %27

19:                                               ; preds = %14
  %20 = load double, ptr %5, align 8, !tbaa !61
  %21 = fcmp reassoc nsz arcp contract afn olt double %20, 0.000000e+00
  br i1 %21, label %22, label %23

22:                                               ; preds = %19
  br label %25

23:                                               ; preds = %19
  %24 = load double, ptr %5, align 8, !tbaa !61
  br label %25

25:                                               ; preds = %23, %22
  %26 = phi reassoc nsz arcp contract afn double [ 0.000000e+00, %22 ], [ %24, %23 ]
  br label %27

27:                                               ; preds = %25, %18
  %28 = phi reassoc nsz arcp contract afn double [ 1.000000e+00, %18 ], [ %26, %25 ]
  call void @dt_control_job_set_progress(ptr noundef %15, double noundef %28)
  %29 = load double, ptr %7, align 8, !tbaa !61
  %30 = load ptr, ptr %6, align 8, !tbaa !266
  store double %29, ptr %30, align 8, !tbaa !61
  br label %31

31:                                               ; preds = %27, %3
  call void @llvm.lifetime.end.p0(i64 8, ptr %7) #14
  ret void
}

; Function Attrs: nounwind uwtable
define internal void @_collection_update(ptr noundef %0, ptr noundef %1) #0 {
  %3 = alloca ptr, align 8
  %4 = alloca ptr, align 8
  %5 = alloca double, align 8
  store ptr %0, ptr %3, align 8, !tbaa !266
  store ptr %1, ptr %4, align 8, !tbaa !266
  call void @llvm.lifetime.start.p0(i64 8, ptr %5) #14
  %6 = call reassoc nsz arcp contract afn double @dt_get_wtime()
  store double %6, ptr %5, align 8, !tbaa !61
  %7 = load double, ptr %5, align 8, !tbaa !61
  %8 = load ptr, ptr %3, align 8, !tbaa !266
  %9 = load double, ptr %8, align 8, !tbaa !61
  %10 = fsub reassoc nsz arcp contract afn double %7, %9
  %11 = load ptr, ptr %4, align 8, !tbaa !266
  %12 = load double, ptr %11, align 8, !tbaa !61
  %13 = fcmp reassoc nsz arcp contract afn ogt double %10, %12
  br i1 %13, label %14, label %26

14:                                               ; preds = %2
  %15 = load double, ptr %5, align 8, !tbaa !61
  %16 = load ptr, ptr %3, align 8, !tbaa !266
  store double %15, ptr %16, align 8, !tbaa !61
  %17 = load ptr, ptr %4, align 8, !tbaa !266
  %18 = load double, ptr %17, align 8, !tbaa !61
  %19 = fcmp reassoc nsz arcp contract afn olt double %18, 3.000000e+00
  br i1 %19, label %20, label %24

20:                                               ; preds = %14
  %21 = load ptr, ptr %4, align 8, !tbaa !266
  %22 = load double, ptr %21, align 8, !tbaa !61
  %23 = fadd reassoc nsz arcp contract afn double %22, 1.000000e-01
  store double %23, ptr %21, align 8, !tbaa !61
  br label %24

24:                                               ; preds = %20, %14
  %25 = load ptr, ptr getelementptr inbounds nuw (%struct.darktable_t, ptr @darktable, i32 0, i32 21), align 8, !tbaa !83
  call void @dt_collection_update_query(ptr noundef %25, i32 noundef 3, i32 noundef 43, ptr noundef null)
  call void (...) @dt_control_queue_redraw_center()
  br label %26

26:                                               ; preds = %24, %2
  call void @llvm.lifetime.end.p0(i64 8, ptr %5) #14
  ret void
}

; Function Attrs: inlinehint nounwind uwtable
define internal i32 @_job_cancelled(ptr noundef %0) #5 {
  %2 = alloca ptr, align 8
  store ptr %0, ptr %2, align 8, !tbaa !51
  %3 = load ptr, ptr %2, align 8, !tbaa !51
  %4 = call i32 @dt_control_job_get_state(ptr noundef %3)
  %5 = icmp eq i32 %4, 4
  %6 = zext i1 %5 to i32
  ret i32 %6
}

; Function Attrs: inlinehint nounwind uwtable
define internal double @dt_get_wtime() #5 {
  %1 = alloca %struct.timeval, align 8
  call void @llvm.lifetime.start.p0(i64 16, ptr %1) #14
  %2 = call i32 @gettimeofday(ptr noundef %1, ptr noundef null) #14
  %3 = getelementptr inbounds nuw %struct.timeval, ptr %1, i32 0, i32 0
  %4 = load i64, ptr %3, align 8, !tbaa !263
  %5 = sub nsw i64 %4, 1290608000
  %6 = sitofp i64 %5 to double
  %7 = getelementptr inbounds nuw %struct.timeval, ptr %1, i32 0, i32 1
  %8 = load i64, ptr %7, align 8, !tbaa !265
  %9 = sitofp i64 %8 to double
  %10 = fmul reassoc nsz arcp contract afn double 0x3EB0C6F7A0B5ED8D, %9
  %11 = fadd reassoc nsz arcp contract afn double %6, %10
  call void @llvm.lifetime.end.p0(i64 16, ptr %1) #14
  ret double %11
}

; Function Attrs: nounwind uwtable
define internal i32 @dt_control_duplicate_images_job_run(ptr noundef %0) #0 {
  %2 = alloca ptr, align 8
  %3 = alloca ptr, align 8
  %4 = alloca ptr, align 8
  %5 = alloca i32, align 4
  %6 = alloca double, align 8
  %7 = alloca [512 x i8], align 16
  %8 = alloca double, align 8
  %9 = alloca double, align 8
  %10 = alloca double, align 8
  %11 = alloca i32, align 4
  %12 = alloca i32, align 4
  store ptr %0, ptr %2, align 8, !tbaa !51
  call void @llvm.lifetime.start.p0(i64 8, ptr %3) #14
  %13 = load ptr, ptr %2, align 8, !tbaa !51
  %14 = call ptr @dt_control_job_get_params(ptr noundef %13)
  store ptr %14, ptr %3, align 8, !tbaa !53
  call void @llvm.lifetime.start.p0(i64 8, ptr %4) #14
  %15 = load ptr, ptr %3, align 8, !tbaa !53
  %16 = getelementptr inbounds nuw %struct.dt_control_image_enumerator_t, ptr %15, i32 0, i32 0
  %17 = load ptr, ptr %16, align 8, !tbaa !57
  store ptr %17, ptr %4, align 8, !tbaa !60
  call void @llvm.lifetime.start.p0(i64 4, ptr %5) #14
  %18 = load ptr, ptr %4, align 8, !tbaa !60
  %19 = call i32 @g_list_length(ptr noundef %18)
  store i32 %19, ptr %5, align 4, !tbaa !50
  call void @llvm.lifetime.start.p0(i64 8, ptr %6) #14
  store double 0.000000e+00, ptr %6, align 8, !tbaa !61
  call void @llvm.lifetime.start.p0(i64 512, ptr %7) #14
  call void @llvm.memset.p0.i64(ptr align 16 %7, i8 0, i64 512, i1 false)
  %20 = load ptr, ptr getelementptr inbounds nuw (%struct.darktable_t, ptr @darktable, i32 0, i32 27), align 8, !tbaa !92
  call void @dt_undo_start_group(ptr noundef %20, i32 noundef 1024)
  %21 = getelementptr inbounds [512 x i8], ptr %7, i64 0, i64 0
  %22 = load i32, ptr %5, align 4, !tbaa !50
  %23 = zext i32 %22 to i64
  %24 = call ptr @dcngettext(ptr noundef null, ptr noundef @.str.80, ptr noundef @.str.81, i64 noundef %23, i32 noundef 5) #14
  %25 = load i32, ptr %5, align 4, !tbaa !50
  %26 = call i32 (ptr, i64, ptr, ...) @snprintf(ptr noundef %21, i64 noundef 512, ptr noundef %24, i32 noundef %25) #14
  %27 = load ptr, ptr %2, align 8, !tbaa !51
  %28 = getelementptr inbounds [512 x i8], ptr %7, i64 0, i64 0
  call void @dt_control_job_set_progress_message(ptr noundef %27, ptr noundef %28)
  call void @llvm.lifetime.start.p0(i64 8, ptr %8) #14
  store double 0.000000e+00, ptr %8, align 8, !tbaa !61
  call void @llvm.lifetime.start.p0(i64 8, ptr %9) #14
  %29 = call reassoc nsz arcp contract afn double @dt_get_wtime()
  %30 = fsub reassoc nsz arcp contract afn double %29, 2.500000e-01
  store double %30, ptr %9, align 8, !tbaa !61
  call void @llvm.lifetime.start.p0(i64 8, ptr %10) #14
  store double 5.000000e-01, ptr %10, align 8, !tbaa !61
  br label %31

31:                                               ; preds = %84, %1
  %32 = load ptr, ptr %4, align 8, !tbaa !60
  %33 = icmp ne ptr %32, null
  br i1 %33, label %34, label %39

34:                                               ; preds = %31
  %35 = load ptr, ptr %2, align 8, !tbaa !51
  %36 = call i32 @_job_cancelled(ptr noundef %35)
  %37 = icmp ne i32 %36, 0
  %38 = xor i1 %37, true
  br label %39

39:                                               ; preds = %34, %31
  %40 = phi i1 [ false, %31 ], [ %38, %34 ]
  br i1 %40, label %41, label %86

41:                                               ; preds = %39
  call void @llvm.lifetime.start.p0(i64 4, ptr %11) #14
  %42 = load ptr, ptr %4, align 8, !tbaa !60
  %43 = getelementptr inbounds nuw %struct._GList, ptr %42, i32 0, i32 0
  %44 = load ptr, ptr %43, align 8, !tbaa !70
  %45 = ptrtoint ptr %44 to i64
  %46 = trunc i64 %45 to i32
  store i32 %46, ptr %11, align 4, !tbaa !50
  call void @llvm.lifetime.start.p0(i64 4, ptr %12) #14
  %47 = load i32, ptr %11, align 4, !tbaa !50
  %48 = call i32 @dt_image_duplicate(i32 noundef %47)
  store i32 %48, ptr %12, align 4, !tbaa !50
  %49 = load i32, ptr %12, align 4, !tbaa !50
  %50 = icmp sgt i32 %49, 0
  br i1 %50, label %51, label %68

51:                                               ; preds = %41
  %52 = load ptr, ptr %3, align 8, !tbaa !53
  %53 = getelementptr inbounds nuw %struct.dt_control_image_enumerator_t, ptr %52, i32 0, i32 2
  %54 = load ptr, ptr %53, align 8, !tbaa !59
  %55 = ptrtoint ptr %54 to i64
  %56 = trunc i64 %55 to i32
  %57 = icmp ne i32 %56, 0
  br i1 %57, label %58, label %60

58:                                               ; preds = %51
  %59 = load i32, ptr %12, align 4, !tbaa !50
  call void @dt_history_delete_on_image(i32 noundef %59)
  br label %64

60:                                               ; preds = %51
  %61 = load i32, ptr %11, align 4, !tbaa !50
  %62 = load i32, ptr %12, align 4, !tbaa !50
  %63 = call i32 @dt_history_copy_and_paste_on_image(i32 noundef %61, i32 noundef %62, i32 noundef 0, ptr noundef null, i32 noundef 1, i32 noundef 1, i32 noundef 1)
  br label %64

64:                                               ; preds = %60, %58
  %65 = load ptr, ptr getelementptr inbounds nuw (%struct.darktable_t, ptr @darktable, i32 0, i32 16), align 8, !tbaa !93
  %66 = load i32, ptr %12, align 4, !tbaa !50
  %67 = load i32, ptr %11, align 4, !tbaa !50
  call void @dt_image_cache_set_change_timestamp_from_image(ptr noundef %65, i32 noundef %66, i32 noundef %67)
  call void @_collection_update(ptr noundef %9, ptr noundef %10)
  br label %68

68:                                               ; preds = %64, %41
  %69 = load i32, ptr %5, align 4, !tbaa !50
  %70 = uitofp i32 %69 to double
  %71 = fdiv reassoc nsz arcp contract afn double 1.000000e+00, %70
  %72 = load double, ptr %6, align 8, !tbaa !61
  %73 = fadd reassoc nsz arcp contract afn double %72, %71
  store double %73, ptr %6, align 8, !tbaa !61
  %74 = load ptr, ptr %2, align 8, !tbaa !51
  %75 = load double, ptr %6, align 8, !tbaa !61
  call void @_update_progress(ptr noundef %74, double noundef %75, ptr noundef %8)
  call void @llvm.lifetime.end.p0(i64 4, ptr %12) #14
  call void @llvm.lifetime.end.p0(i64 4, ptr %11) #14
  br label %76

76:                                               ; preds = %68
  %77 = load ptr, ptr %4, align 8, !tbaa !60
  %78 = icmp ne ptr %77, null
  br i1 %78, label %79, label %83

79:                                               ; preds = %76
  %80 = load ptr, ptr %4, align 8, !tbaa !60
  %81 = getelementptr inbounds nuw %struct._GList, ptr %80, i32 0, i32 1
  %82 = load ptr, ptr %81, align 8, !tbaa !72
  br label %84

83:                                               ; preds = %76
  br label %84

84:                                               ; preds = %83, %79
  %85 = phi ptr [ %82, %79 ], [ null, %83 ]
  store ptr %85, ptr %4, align 8, !tbaa !60
  br label %31

86:                                               ; preds = %39
  %87 = load ptr, ptr getelementptr inbounds nuw (%struct.darktable_t, ptr @darktable, i32 0, i32 27), align 8, !tbaa !92
  call void @dt_undo_end_group(ptr noundef %87)
  br label %88

88:                                               ; preds = %86
  %89 = load i32, ptr getelementptr inbounds nuw (%struct.darktable_t, ptr @darktable, i32 0, i32 53), align 8, !tbaa !84
  %90 = and i32 %89, 1
  %91 = icmp ne i32 %90, 0
  br i1 %91, label %92, label %109

92:                                               ; preds = %88
  %93 = load i32, ptr getelementptr inbounds ([47 x i32], ptr getelementptr inbounds nuw (%struct.darktable_t, ptr @darktable, i32 0, i32 54), i64 0, i64 15), align 4, !tbaa !50
  %94 = icmp ne i32 %93, 0
  br i1 %94, label %95, label %109

95:                                               ; preds = %92
  br label %96

96:                                               ; preds = %95
  %97 = load i32, ptr getelementptr inbounds nuw (%struct.darktable_t, ptr @darktable, i32 0, i32 2), align 8, !tbaa !85
  %98 = and i32 1048576, %97
  %99 = icmp ne i32 %98, 0
  br i1 %99, label %100, label %106

100:                                              ; preds = %96
  %101 = load i32, ptr getelementptr inbounds nuw (%struct.darktable_t, ptr @darktable, i32 0, i32 2), align 8, !tbaa !85
  %102 = xor i32 %101, -1
  %103 = and i32 0, %102
  %104 = icmp ne i32 %103, 0
  br i1 %104, label %106, label %105

105:                                              ; preds = %100
  call void (ptr, ...) @dt_print_ext(ptr noundef @.str.60, ptr noundef @.str.61, ptr noundef @.str.48, i32 noundef 744, ptr noundef @__FUNCTION__.dt_control_duplicate_images_job_run)
  br label %106

106:                                              ; preds = %105, %100, %96
  br label %107

107:                                              ; preds = %106
  br label %108

108:                                              ; preds = %107
  br label %109

109:                                              ; preds = %108, %92, %88
  %110 = load ptr, ptr getelementptr inbounds nuw (%struct.darktable_t, ptr @darktable, i32 0, i32 13), align 8, !tbaa !86
  call void (ptr, i32, ...) @dt_control_signal_raise(ptr noundef %110, i32 noundef 15)
  br label %111

111:                                              ; preds = %109
  br label %112

112:                                              ; preds = %111
  call void (...) @dt_control_queue_redraw_center()
  call void @llvm.lifetime.end.p0(i64 8, ptr %10) #14
  call void @llvm.lifetime.end.p0(i64 8, ptr %9) #14
  call void @llvm.lifetime.end.p0(i64 8, ptr %8) #14
  call void @llvm.lifetime.end.p0(i64 512, ptr %7) #14
  call void @llvm.lifetime.end.p0(i64 8, ptr %6) #14
  call void @llvm.lifetime.end.p0(i64 4, ptr %5) #14
  call void @llvm.lifetime.end.p0(i64 8, ptr %4) #14
  call void @llvm.lifetime.end.p0(i64 8, ptr %3) #14
  ret i32 0
}