; Function Attrs: nounwind uwtable
define internal noundef i32 @dt_control_duplicate_images_job_run(ptr noundef %0) #0 {
  %2 = alloca %struct.timeval, align 8
  %3 = alloca %struct.timeval, align 8
  %4 = alloca %struct.timeval, align 8
  %5 = alloca [512 x i8], align 16
  %6 = tail call ptr @dt_control_job_get_params(ptr noundef %0) #17
  %7 = load ptr, ptr %6, align 8, !tbaa !50
  %8 = tail call i32 @g_list_length(ptr noundef %7) #17
  call void @llvm.lifetime.start.p0(i64 512, ptr nonnull %5) #17
  call void @llvm.memset.p0.i64(ptr noundef nonnull align 16 dereferenceable(512) %5, i8 0, i64 512, i1 false)
  %9 = load ptr, ptr getelementptr inbounds nuw (i8, ptr @darktable, i64 208), align 8, !tbaa !87
  tail call void @dt_undo_start_group(ptr noundef %9, i32 noundef 1024) #17
  %10 = zext i32 %8 to i64
  %11 = tail call ptr @dcngettext(ptr noundef null, ptr noundef nonnull @.str.80, ptr noundef nonnull @.str.81, i64 noundef %10, i32 noundef 5) #17
  %12 = call i32 (ptr, i64, ptr, ...) @snprintf(ptr noundef nonnull dereferenceable(1) %5, i64 noundef 512, ptr noundef %11, i32 noundef %8) #17
  call void @dt_control_job_set_progress_message(ptr noundef %0, ptr noundef nonnull %5) #17
  call void @llvm.lifetime.start.p0(i64 16, ptr nonnull %4) #17
  %13 = call i32 @gettimeofday(ptr noundef nonnull %4, ptr noundef null) #17
  %14 = load i64, ptr %4, align 8, !tbaa !88
  %15 = getelementptr inbounds nuw i8, ptr %4, i64 8
  %16 = load i64, ptr %15, align 8, !tbaa !90
  call void @llvm.lifetime.end.p0(i64 16, ptr nonnull %4) #17
  %.not38 = icmp eq ptr %7, null
  br i1 %.not38, label %.critedge, label %.lr.ph

.lr.ph:                                           ; preds = %1
  %17 = add nsw i64 %14, -1290608000
  %18 = sitofp i64 %17 to double
  %19 = fadd reassoc nsz arcp contract afn double %18, -2.500000e-01
  %20 = sitofp i64 %16 to double
  %21 = fmul reassoc nsz arcp contract afn double %20, 0x3EB0C6F7A0B5ED8D
  %22 = fadd reassoc nsz arcp contract afn double %19, %21
  %23 = getelementptr inbounds nuw i8, ptr %6, i64 16
  %24 = getelementptr inbounds nuw i8, ptr %3, i64 8
  %25 = uitofp i32 %8 to double
  %26 = fdiv reassoc nsz arcp contract afn double 1.000000e+00, %25
  %27 = getelementptr inbounds nuw i8, ptr %2, i64 8
  br label %28

28:                                               ; preds = %.lr.ph, %_update_progress.exit
  %.043 = phi ptr [ %7, %.lr.ph ], [ %76, %_update_progress.exit ]
  %.02342 = phi double [ 0.000000e+00, %.lr.ph ], [ %59, %_update_progress.exit ]
  %.03141 = phi double [ 5.000000e-01, %.lr.ph ], [ %.1, %_update_progress.exit ]
  %.03240 = phi double [ %22, %.lr.ph ], [ %.133, %_update_progress.exit ]
  %.03539 = phi double [ 0.000000e+00, %.lr.ph ], [ %.136, %_update_progress.exit ]
  %29 = call i32 @dt_control_job_get_state(ptr noundef %0) #17
  %.not37 = icmp eq i32 %29, 4
  br i1 %.not37, label %.critedge, label %30

30:                                               ; preds = %28
  %31 = load ptr, ptr %.043, align 8, !tbaa !61
  %32 = ptrtoint ptr %31 to i64
  %33 = trunc i64 %32 to i32
  %34 = call i32 @dt_image_duplicate(i32 noundef %33) #17
  %35 = icmp sgt i32 %34, 0
  br i1 %35, label %36, label %_collection_update.exit

36:                                               ; preds = %30
  %37 = load ptr, ptr %23, align 8, !tbaa !52
  %38 = ptrtoint ptr %37 to i64
  %39 = and i64 %38, 4294967295
  %.not27 = icmp eq i64 %39, 0
  br i1 %.not27, label %41, label %40

40:                                               ; preds = %36
  call void @dt_history_delete_on_image(i32 noundef %34) #17
  br label %43

41:                                               ; preds = %36
  %42 = call i32 @dt_history_copy_and_paste_on_image(i32 noundef %33, i32 noundef %34, i32 noundef 0, ptr noundef null, i32 noundef 1, i32 noundef 1, i32 noundef 1) #17
  br label %43

43:                                               ; preds = %41, %40
  %44 = load ptr, ptr getelementptr inbounds nuw (i8, ptr @darktable, i64 120), align 8, !tbaa !91
  call void @dt_image_cache_set_change_timestamp_from_image(ptr noundef %44, i32 noundef %34, i32 noundef %33) #17
  call void @llvm.lifetime.start.p0(i64 16, ptr nonnull %3) #17
  %45 = call i32 @gettimeofday(ptr noundef nonnull %3, ptr noundef null) #17
  %46 = load i64, ptr %3, align 8, !tbaa !88
  %47 = add nsw i64 %46, -1290608000
  %48 = sitofp i64 %47 to double
  %49 = load i64, ptr %24, align 8, !tbaa !90
  %50 = sitofp i64 %49 to double
  %51 = fmul reassoc nsz arcp contract afn double %50, 0x3EB0C6F7A0B5ED8D
  %52 = fadd reassoc nsz arcp contract afn double %51, %48
  call void @llvm.lifetime.end.p0(i64 16, ptr nonnull %3) #17
  %53 = fsub reassoc nsz arcp contract afn double %52, %.03240
  %54 = fcmp reassoc nsz arcp contract afn ogt double %53, %.03141
  br i1 %54, label %55, label %_collection_update.exit

55:                                               ; preds = %43
  %56 = fcmp reassoc nsz arcp contract afn olt double %.03141, 3.000000e+00
  %57 = fadd reassoc nsz arcp contract afn double %.03141, 1.000000e-01
  %.2 = select nsz i1 %56, double %57, double %.03141
  %58 = load ptr, ptr getelementptr inbounds nuw (i8, ptr @darktable, i64 160), align 8, !tbaa !75
  call void @dt_collection_update_query(ptr noundef %58, i32 noundef 3, i32 noundef 43, ptr noundef null) #17
  call void (...) @dt_control_queue_redraw_center() #17
  br label %_collection_update.exit

_collection_update.exit:                          ; preds = %55, %43, %30
  %.133 = phi nsz double [ %.03240, %30 ], [ %52, %55 ], [ %.03240, %43 ]
  %.1 = phi nsz double [ %.03141, %30 ], [ %.2, %55 ], [ %.03141, %43 ]
  %59 = fadd reassoc nsz arcp contract afn double %.02342, %26
  call void @llvm.lifetime.start.p0(i64 16, ptr nonnull %2) #17
  %60 = call i32 @gettimeofday(ptr noundef nonnull %2, ptr noundef null) #17
  %61 = load i64, ptr %2, align 8, !tbaa !88
  %62 = add nsw i64 %61, -1290608000
  %63 = sitofp i64 %62 to double
  %64 = load i64, ptr %27, align 8, !tbaa !90
  %65 = sitofp i64 %64 to double
  %66 = fmul reassoc nsz arcp contract afn double %65, 0x3EB0C6F7A0B5ED8D
  %67 = fadd reassoc nsz arcp contract afn double %66, %63
  call void @llvm.lifetime.end.p0(i64 16, ptr nonnull %2) #17
  %68 = fadd reassoc nsz arcp contract afn double %.03539, 5.000000e-01
  %69 = fcmp reassoc nsz arcp contract afn ogt double %67, %68
  br i1 %69, label %70, label %_update_progress.exit

70:                                               ; preds = %_collection_update.exit
  %71 = fcmp reassoc nsz arcp contract afn ogt double %59, 1.000000e+00
  %72 = fcmp reassoc nsz arcp contract afn olt double %59, 0.000000e+00
  %73 = select reassoc nsz arcp contract afn i1 %72, double 0.000000e+00, double %59
  %74 = select reassoc nsz arcp contract afn i1 %71, double 1.000000e+00, double %73
  call void @dt_control_job_set_progress(ptr noundef %0, double noundef %74) #17
  br label %_update_progress.exit

_update_progress.exit:                            ; preds = %_collection_update.exit, %70
  %.136 = phi nsz double [ %67, %70 ], [ %.03539, %_collection_update.exit ]
  %75 = getelementptr inbounds nuw i8, ptr %.043, i64 8
  %76 = load ptr, ptr %75, align 8, !tbaa !63
  %.not = icmp eq ptr %76, null
  br i1 %.not, label %.critedge, label %28

.critedge:                                        ; preds = %28, %_update_progress.exit, %1
  %77 = load ptr, ptr getelementptr inbounds nuw (i8, ptr @darktable, i64 208), align 8, !tbaa !87
  call void @dt_undo_end_group(ptr noundef %77) #17
  %78 = load i32, ptr getelementptr inbounds nuw (i8, ptr @darktable, i64 3128), align 8, !tbaa !76
  %79 = and i32 %78, 1
  %80 = icmp ne i32 %79, 0
  %81 = load i32, ptr getelementptr inbounds nuw (i8, ptr @darktable, i64 3192), align 8
  %82 = icmp ne i32 %81, 0
  %or.cond = select i1 %80, i1 %82, i1 false
  br i1 %or.cond, label %83, label %87

83:                                               ; preds = %.critedge
  %84 = load i32, ptr getelementptr inbounds nuw (i8, ptr @darktable, i64 8), align 8, !tbaa !77
  %85 = and i32 %84, 1048576
  %.not26 = icmp eq i32 %85, 0
  br i1 %.not26, label %87, label %86

86:                                               ; preds = %83
  call void (ptr, ...) @dt_print_ext(ptr noundef nonnull @.str.60, ptr noundef nonnull @.str.61, ptr noundef nonnull @.str.48, i32 noundef 744, ptr noundef nonnull @__FUNCTION__.dt_control_duplicate_images_job_run) #17
  br label %87

87:                                               ; preds = %83, %86, %.critedge
  %88 = load ptr, ptr getelementptr inbounds nuw (i8, ptr @darktable, i64 96), align 8, !tbaa !78
  call void (ptr, i32, ...) @dt_control_signal_raise(ptr noundef %88, i32 noundef 15) #17
  call void (...) @dt_control_queue_redraw_center() #17
  call void @llvm.lifetime.end.p0(i64 512, ptr nonnull %5) #17
  ret i32 0
}